target datalayout = "e-m:e-p270:32:32-p271:32:32-p272:64:64-i64:64-i128:128-f80:128-n8:16:32:64-S128"
target triple = "x86_64-pc-linux-gnu"

%struct.StringInfoData = type { ptr, i32, i32, i32 }
%struct.WalReceiverFunctionsType = type { ptr, ptr, ptr, ptr, ptr, ptr, ptr, ptr, ptr, ptr, ptr, ptr, ptr, ptr, ptr, ptr, ptr }

@.str.1 = private unnamed_addr constant [12 x i8] c"slotfuncs.c\00", align 1
@.str.12 = private unnamed_addr constant [63 x i8] c"replication slots can only be synchronized to a standby server\00", align 1
@__func__.pg_sync_replication_slots = private unnamed_addr constant [26 x i8] c"pg_sync_replication_slots\00", align 1
@.str.13 = private unnamed_addr constant [17 x i8] c"libpqwalreceiver\00", align 1
@cluster_name = external global ptr, align 8
@.str.14 = private unnamed_addr constant [12 x i8] c"%s_slotsync\00", align 1
@.str.15 = private unnamed_addr constant [9 x i8] c"slotsync\00", align 1
@WalReceiverFunctions = external global ptr, align 8
@PrimaryConnInfo = external global ptr, align 8
@.str.16 = private unnamed_addr constant [72 x i8] c"synchronization worker \22%s\22 could not connect to the primary server: %s\00", align 1

; Function Attrs: nounwind uwtable
define dso_local i64 @pg_sync_replication_slots(ptr noundef %0) #0 {
  %2 = alloca ptr, align 8
  %3 = alloca ptr, align 8
  %4 = alloca ptr, align 8
  %5 = alloca %struct.StringInfoData, align 8
  store ptr %0, ptr %2, align 8
  call void @llvm.lifetime.start.p0(i64 8, ptr %3) #8
  call void @llvm.lifetime.start.p0(i64 8, ptr %4) #8
  call void @llvm.lifetime.start.p0(i64 24, ptr %5) #8
  call void @CheckSlotPermissions()
  %6 = call zeroext i1 @RecoveryInProgress()
  br i1 %6, label %19, label %7

7:                                                ; preds = %1
  br label %8

8:                                                ; preds = %7
  br i1 true, label %9, label %11

9:                                                ; preds = %8
  %10 = call zeroext i1 @errstart_cold(i32 noundef 21, ptr noundef null) #9
  br i1 %10, label %13, label %16

11:                                               ; preds = %8
  %12 = call zeroext i1 @errstart(i32 noundef 21, ptr noundef null)
  br i1 %12, label %13, label %16

13:                                               ; preds = %11, %9
  %14 = call i32 @errcode(i32 noundef 325)
  %15 = call i32 (ptr, ...) @errmsg(ptr noundef @.str.12)
  call void @errfinish(ptr noundef @.str.1, i32 noundef 874, ptr noundef @__func__.pg_sync_replication_slots)
  br label %16

16:                                               ; preds = %13, %11, %9
  unreachable

17:                                               ; No predecessors!
  br label %18

18:                                               ; preds = %17
  br label %19

19:                                               ; preds = %18, %1
  %20 = call zeroext i1 @ValidateSlotSyncParams(i32 noundef 21)
  call void @load_file(ptr noundef @.str.13, i1 noundef zeroext false)
  %21 = call ptr @CheckAndGetDbnameFromConninfo()
  call void @initStringInfo(ptr noundef %5)
  %22 = load ptr, ptr @cluster_name, align 8
  %23 = getelementptr inbounds i8, ptr %22, i64 0
  %24 = load i8, ptr %23, align 1
  %25 = icmp ne i8 %24, 0
  br i1 %25, label %26, label %28

26:                                               ; preds = %19
  %27 = load ptr, ptr @cluster_name, align 8
  call void (ptr, ptr, ...) @appendStringInfo(ptr noundef %5, ptr noundef @.str.14, ptr noundef %27)
  br label %29

28:                                               ; preds = %19
  call void @appendStringInfoString(ptr noundef %5, ptr noundef @.str.15)
  br label %29

29:                                               ; preds = %28, %26
  %30 = load ptr, ptr @WalReceiverFunctions, align 8
  %31 = getelementptr inbounds nuw %struct.WalReceiverFunctionsType, ptr %30, i32 0, i32 0
  %32 = load ptr, ptr %31, align 8
  %33 = load ptr, ptr @PrimaryConnInfo, align 8
  %34 = getelementptr inbounds nuw %struct.StringInfoData, ptr %5, i32 0, i32 0
  %35 = load ptr, ptr %34, align 8
  %36 = call ptr %32(ptr noundef %33, i1 noundef zeroext false, i1 noundef zeroext false, i1 noundef zeroext false, ptr noundef %35, ptr noundef %4)
  store ptr %36, ptr %3, align 8
  %37 = getelementptr inbounds nuw %struct.StringInfoData, ptr %5, i32 0, i32 0
  %38 = load ptr, ptr %37, align 8
  call void @pfree(ptr noundef %38)
  %39 = load ptr, ptr %3, align 8
  %40 = icmp ne ptr %39, null
  br i1 %40, label %56, label %41

41:                                               ; preds = %29
  br label %42

42:                                               ; preds = %41
  br i1 true, label %43, label %45

43:                                               ; preds = %42
  %44 = call zeroext i1 @errstart_cold(i32 noundef 21, ptr noundef null) #9
  br i1 %44, label %47, label %53

45:                                               ; preds = %42
  %46 = call zeroext i1 @errstart(i32 noundef 21, ptr noundef null)
  br i1 %46, label %47, label %53

47:                                               ; preds = %45, %43
  %48 = call i32 @errcode(i32 noundef 100663808)
  %49 = getelementptr inbounds nuw %struct.StringInfoData, ptr %5, i32 0, i32 0
  %50 = load ptr, ptr %49, align 8
  %51 = load ptr, ptr %4, align 8
  %52 = call i32 (ptr, ...) @errmsg(ptr noundef @.str.16, ptr noundef %50, ptr noundef %51)
  call void @errfinish(ptr noundef @.str.1, i32 noundef 898, ptr noundef @__func__.pg_sync_replication_slots)
  br label %53

53:                                               ; preds = %47, %45, %43
  unreachable

54:                                               ; No predecessors!
  br label %55

55:                                               ; preds = %54
  br label %56

56:                                               ; preds = %55, %29
  %57 = load ptr, ptr %3, align 8
  call void @SyncReplicationSlots(ptr noundef %57)
  %58 = load ptr, ptr @WalReceiverFunctions, align 8
  %59 = getelementptr inbounds nuw %struct.WalReceiverFunctionsType, ptr %58, i32 0, i32 16
  %60 = load ptr, ptr %59, align 8
  %61 = load ptr, ptr %3, align 8
  call void %60(ptr noundef %61)
  call void @llvm.lifetime.end.p0(i64 24, ptr %5) #8
  call void @llvm.lifetime.end.p0(i64 8, ptr %4) #8
  call void @llvm.lifetime.end.p0(i64 8, ptr %3) #8
  ret i64 0
}