; Function Attrs: nounwind uwtable
define dso_local noundef i64 @pg_sync_replication_slots(ptr noundef readnone captures(none) %0) local_unnamed_addr #0 {
  %2 = alloca ptr, align 8
  %3 = alloca %struct.StringInfoData, align 8
  call void @llvm.lifetime.start.p0(i64 8, ptr nonnull %2) #9
  call void @llvm.lifetime.start.p0(i64 24, ptr nonnull %3) #9
  tail call void @CheckSlotPermissions() #9
  %4 = tail call zeroext i1 @RecoveryInProgress() #9
  br i1 %4, label %9, label %5

5:                                                ; preds = %1
  %6 = tail call zeroext i1 @errstart_cold(i32 noundef 21, ptr noundef null) #10
  tail call void @llvm.assume(i1 %6)
  %7 = tail call i32 @errcode(i32 noundef 325) #9
  %8 = tail call i32 (ptr, ...) @errmsg(ptr noundef nonnull @.str.12) #9
  tail call void @errfinish(ptr noundef nonnull @.str.1, i32 noundef 874, ptr noundef nonnull @__func__.pg_sync_replication_slots) #9
  unreachable

9:                                                ; preds = %1
  %10 = tail call zeroext i1 @ValidateSlotSyncParams(i32 noundef 21) #9
  tail call void @load_file(ptr noundef nonnull @.str.13, i1 noundef zeroext false) #9
  %11 = tail call ptr @CheckAndGetDbnameFromConninfo() #9
  call void @initStringInfo(ptr noundef nonnull %3) #9
  %12 = load ptr, ptr @cluster_name, align 8
  %13 = load i8, ptr %12, align 1
  %.not = icmp eq i8 %13, 0
  br i1 %.not, label %15, label %14

14:                                               ; preds = %9
  call void (ptr, ptr, ...) @appendStringInfo(ptr noundef nonnull %3, ptr noundef nonnull @.str.14, ptr noundef nonnull %12) #9
  br label %16

15:                                               ; preds = %9
  call void @appendStringInfoString(ptr noundef nonnull %3, ptr noundef nonnull @.str.15) #9
  br label %16

16:                                               ; preds = %15, %14
  %17 = load ptr, ptr @WalReceiverFunctions, align 8
  %18 = load ptr, ptr %17, align 8
  %19 = load ptr, ptr @PrimaryConnInfo, align 8
  %20 = load ptr, ptr %3, align 8
  %21 = call ptr %18(ptr noundef %19, i1 noundef zeroext false, i1 noundef zeroext false, i1 noundef zeroext false, ptr noundef %20, ptr noundef nonnull %2) #9
  %22 = load ptr, ptr %3, align 8
  call void @pfree(ptr noundef %22) #9
  %.not3 = icmp eq ptr %21, null
  br i1 %.not3, label %23, label %29

23:                                               ; preds = %16
  %24 = call zeroext i1 @errstart_cold(i32 noundef 21, ptr noundef null) #10
  call void @llvm.assume(i1 %24)
  %25 = call i32 @errcode(i32 noundef 100663808) #9
  %26 = load ptr, ptr %3, align 8
  %27 = load ptr, ptr %2, align 8
  %28 = call i32 (ptr, ...) @errmsg(ptr noundef nonnull @.str.16, ptr noundef %26, ptr noundef %27) #9
  call void @errfinish(ptr noundef nonnull @.str.1, i32 noundef 898, ptr noundef nonnull @__func__.pg_sync_replication_slots) #9
  unreachable

29:                                               ; preds = %16
  call void @SyncReplicationSlots(ptr noundef nonnull %21) #9
  %30 = load ptr, ptr @WalReceiverFunctions, align 8
  %31 = getelementptr inbounds nuw i8, ptr %30, i64 128
  %32 = load ptr, ptr %31, align 8
  call void %32(ptr noundef nonnull %21) #9
  call void @llvm.lifetime.end.p0(i64 24, ptr nonnull %3) #9
  call void @llvm.lifetime.end.p0(i64 8, ptr nonnull %2) #9
  ret i64 0
}